target datalayout = "e-m:e-p270:32:32-p271:32:32-p272:64:64-i64:64-i128:128-f80:128-n8:16:32:64-S128"
target triple = "x86_64-pc-linux-gnu"

%struct.Qureg = type { i32, i32, i32, i64, i64, i32, i32, %struct.ComplexArray, %struct.ComplexArray, %struct.ComplexArray, ptr, ptr, ptr, ptr, ptr, ptr }
%struct.ComplexArray = type { ptr, ptr }
%struct.QASMLogger = type { ptr, i32, i32, i32 }
%struct.Complex = type { double, double }
%struct.ComplexMatrix2 = type { [2 x [2 x double]], [2 x [2 x double]] }

@.str.28 = private unnamed_addr constant [77 x i8] c"Restoring the discarded global phase of the previous multicontrolled unitary\00", align 1

; Function Attrs: nounwind uwtable
define void @qasm_recordMultiControlledUnitary(ptr noundef byval(%struct.Qureg) align 8 %0, ptr noundef byval(%struct.ComplexMatrix2) align 8 %1, ptr noundef %2, i32 noundef %3, i32 noundef %4) #0 {
  %6 = alloca ptr, align 8
  %7 = alloca i32, align 4
  %8 = alloca i32, align 4
  %9 = alloca %struct.Complex, align 8
  %10 = alloca %struct.Complex, align 8
  %11 = alloca double, align 8
  %12 = alloca double, align 8
  %13 = alloca double, align 8
  %14 = alloca double, align 8
  %15 = alloca [3 x double], align 16
  %16 = alloca [1 x double], align 8
  store ptr %2, ptr %6, align 8, !tbaa !26
  store i32 %3, ptr %7, align 4, !tbaa !25
  store i32 %4, ptr %8, align 4, !tbaa !25
  %17 = getelementptr inbounds nuw %struct.Qureg, ptr %0, i32 0, i32 15
  %18 = load ptr, ptr %17, align 8, !tbaa !10
  %19 = getelementptr inbounds nuw %struct.QASMLogger, ptr %18, i32 0, i32 3
  %20 = load i32, ptr %19, align 8, !tbaa !17
  %21 = icmp ne i32 %20, 0
  br i1 %21, label %23, label %22

22:                                               ; preds = %5
  br label %44

23:                                               ; preds = %5
  call void @llvm.lifetime.start.p0(i64 16, ptr %9) #7
  call void @llvm.lifetime.start.p0(i64 16, ptr %10) #7
  call void @llvm.lifetime.start.p0(i64 8, ptr %11) #7
  call void @getComplexPairAndPhaseFromUnitary(ptr noundef byval(%struct.ComplexMatrix2) align 8 %1, ptr noundef %9, ptr noundef %10, ptr noundef %11)
  call void @llvm.lifetime.start.p0(i64 8, ptr %12) #7
  call void @llvm.lifetime.start.p0(i64 8, ptr %13) #7
  call void @llvm.lifetime.start.p0(i64 8, ptr %14) #7
  %24 = getelementptr inbounds nuw { double, double }, ptr %9, i32 0, i32 0
  %25 = load double, ptr %24, align 8
  %26 = getelementptr inbounds nuw { double, double }, ptr %9, i32 0, i32 1
  %27 = load double, ptr %26, align 8
  %28 = getelementptr inbounds nuw { double, double }, ptr %10, i32 0, i32 0
  %29 = load double, ptr %28, align 8
  %30 = getelementptr inbounds nuw { double, double }, ptr %10, i32 0, i32 1
  %31 = load double, ptr %30, align 8
  call void @getZYZRotAnglesFromComplexPair(double %25, double %27, double %29, double %31, ptr noundef %12, ptr noundef %13, ptr noundef %14)
  call void @llvm.lifetime.start.p0(i64 24, ptr %15) #7
  %32 = load double, ptr %12, align 8, !tbaa !29
  store double %32, ptr %15, align 8, !tbaa !29
  %33 = getelementptr inbounds double, ptr %15, i64 1
  %34 = load double, ptr %13, align 8, !tbaa !29
  store double %34, ptr %33, align 8, !tbaa !29
  %35 = getelementptr inbounds double, ptr %15, i64 2
  %36 = load double, ptr %14, align 8, !tbaa !29
  store double %36, ptr %35, align 8, !tbaa !29
  %37 = load ptr, ptr %6, align 8, !tbaa !26
  %38 = load i32, ptr %7, align 4, !tbaa !25
  %39 = load i32, ptr %8, align 4, !tbaa !25
  %40 = getelementptr inbounds [3 x double], ptr %15, i64 0, i64 0
  call void @addGateToQASM(ptr noundef byval(%struct.Qureg) align 8 %0, i32 noundef 10, ptr noundef %37, i32 noundef %38, i32 noundef %39, ptr noundef %40, i32 noundef 3)
  call void (ptr, ptr, ...) @qasm_recordComment(ptr noundef byval(%struct.Qureg) align 8 %0, ptr noundef @.str.28)
  call void @llvm.lifetime.start.p0(i64 8, ptr %16) #7
  %41 = load double, ptr %11, align 8, !tbaa !29
  store double %41, ptr %16, align 8, !tbaa !29
  %42 = load i32, ptr %8, align 4, !tbaa !25
  %43 = getelementptr inbounds [1 x double], ptr %16, i64 0, i64 0
  call void @addGateToQASM(ptr noundef byval(%struct.Qureg) align 8 %0, i32 noundef 8, ptr noundef null, i32 noundef 0, i32 noundef %42, ptr noundef %43, i32 noundef 1)
  call void @llvm.lifetime.end.p0(i64 8, ptr %16) #7
  call void @llvm.lifetime.end.p0(i64 24, ptr %15) #7
  call void @llvm.lifetime.end.p0(i64 8, ptr %14) #7
  call void @llvm.lifetime.end.p0(i64 8, ptr %13) #7
  call void @llvm.lifetime.end.p0(i64 8, ptr %12) #7
  call void @llvm.lifetime.end.p0(i64 8, ptr %11) #7
  call void @llvm.lifetime.end.p0(i64 16, ptr %10) #7
  call void @llvm.lifetime.end.p0(i64 16, ptr %9) #7
  br label %44

44:                                               ; preds = %23, %22
  ret void
}